target datalayout = "e-m:e-p270:32:32-p271:32:32-p272:64:64-i64:64-i128:128-f80:128-n8:16:32:64-S128"
target triple = "x86_64-pc-linux-gnu"

%struct.ISzAlloc = type { ptr, ptr }
%struct.CBraState = type { i64, i64, i64, i32, i32, i32, i32, i32, [256 x i8], [16384 x i8] }
%struct._IStateCoder = type { ptr, ptr, ptr, ptr, ptr }
%struct.CMixCoder = type { ptr, ptr, i32, [3 x i32], [3 x i64], [3 x i64], [4 x i64], [4 x %struct._IStateCoder] }
%struct.CLzma2Dec = type { %struct.CLzmaDec, i32, i32, i32, i8, i32, i32, i32 }
%struct.CLzmaDec = type { %struct._CLzmaProps, ptr, ptr, ptr, i32, i32, i64, i64, i32, i32, i32, [4 x i32], i32, i32, i32, i32, i32, [20 x i8] }
%struct._CLzmaProps = type { i32, i32, i32, i32 }

; Function Attrs: nounwind uwtable
define i32 @BraState_SetFromMethod(ptr noundef %0, i64 noundef %1, ptr noundef %2) #0 {
  %4 = alloca i32, align 4
  %5 = alloca ptr, align 8
  %6 = alloca i64, align 8
  %7 = alloca ptr, align 8
  %8 = alloca ptr, align 8
  store ptr %0, ptr %5, align 8
  store i64 %1, ptr %6, align 8
  store ptr %2, ptr %7, align 8
  %9 = load i64, ptr %6, align 8
  %10 = icmp ne i64 %9, 3
  br i1 %10, label %11, label %30

11:                                               ; preds = %3
  %12 = load i64, ptr %6, align 8
  %13 = icmp ne i64 %12, 4
  br i1 %13, label %14, label %30

14:                                               ; preds = %11
  %15 = load i64, ptr %6, align 8
  %16 = icmp ne i64 %15, 5
  br i1 %16, label %17, label %30

17:                                               ; preds = %14
  %18 = load i64, ptr %6, align 8
  %19 = icmp ne i64 %18, 6
  br i1 %19, label %20, label %30

20:                                               ; preds = %17
  %21 = load i64, ptr %6, align 8
  %22 = icmp ne i64 %21, 7
  br i1 %22, label %23, label %30

23:                                               ; preds = %20
  %24 = load i64, ptr %6, align 8
  %25 = icmp ne i64 %24, 8
  br i1 %25, label %26, label %30

26:                                               ; preds = %23
  %27 = load i64, ptr %6, align 8
  %28 = icmp ne i64 %27, 9
  br i1 %28, label %29, label %30

29:                                               ; preds = %26
  store i32 4, ptr %4, align 4
  br label %57

30:                                               ; preds = %26, %23, %20, %17, %14, %11, %3
  %31 = load ptr, ptr %5, align 8
  %32 = getelementptr inbounds %struct._IStateCoder, ptr %31, i32 0, i32 0
  store ptr null, ptr %32, align 8
  %33 = load ptr, ptr %7, align 8
  %34 = getelementptr inbounds %struct.ISzAlloc, ptr %33, i32 0, i32 0
  %35 = load ptr, ptr %34, align 8
  %36 = load ptr, ptr %7, align 8
  %37 = call ptr %35(ptr noundef %36, i64 noundef 16688)
  store ptr %37, ptr %8, align 8
  %38 = load ptr, ptr %8, align 8
  %39 = icmp eq ptr %38, null
  br i1 %39, label %40, label %41

40:                                               ; preds = %30
  store i32 2, ptr %4, align 4
  br label %57

41:                                               ; preds = %30
  %42 = load i64, ptr %6, align 8
  %43 = trunc i64 %42 to i32
  %44 = load ptr, ptr %8, align 8
  %45 = getelementptr inbounds %struct.CBraState, ptr %44, i32 0, i32 3
  store i32 %43, ptr %45, align 8
  %46 = load ptr, ptr %8, align 8
  %47 = load ptr, ptr %5, align 8
  %48 = getelementptr inbounds %struct._IStateCoder, ptr %47, i32 0, i32 0
  store ptr %46, ptr %48, align 8
  %49 = load ptr, ptr %5, align 8
  %50 = getelementptr inbounds %struct._IStateCoder, ptr %49, i32 0, i32 1
  store ptr @BraState_Free, ptr %50, align 8
  %51 = load ptr, ptr %5, align 8
  %52 = getelementptr inbounds %struct._IStateCoder, ptr %51, i32 0, i32 2
  store ptr @BraState_SetProps, ptr %52, align 8
  %53 = load ptr, ptr %5, align 8
  %54 = getelementptr inbounds %struct._IStateCoder, ptr %53, i32 0, i32 3
  store ptr @BraState_Init, ptr %54, align 8
  %55 = load ptr, ptr %5, align 8
  %56 = getelementptr inbounds %struct._IStateCoder, ptr %55, i32 0, i32 4
  store ptr @BraState_Code, ptr %56, align 8
  store i32 0, ptr %4, align 4
  br label %57

57:                                               ; preds = %41, %40, %29
  %58 = load i32, ptr %4, align 4
  ret i32 %58
}

; Function Attrs: nounwind uwtable
define internal i32 @Lzma2State_SetFromMethod(ptr noundef %0, ptr noundef %1) #0 {
  %3 = alloca i32, align 4
  %4 = alloca ptr, align 8
  %5 = alloca ptr, align 8
  %6 = alloca ptr, align 8
  store ptr %0, ptr %4, align 8
  store ptr %1, ptr %5, align 8
  %7 = load ptr, ptr %5, align 8
  %8 = getelementptr inbounds %struct.ISzAlloc, ptr %7, i32 0, i32 0
  %9 = load ptr, ptr %8, align 8
  %10 = load ptr, ptr %5, align 8
  %11 = call ptr %9(ptr noundef %10, i64 noundef 168)
  store ptr %11, ptr %6, align 8
  %12 = load ptr, ptr %6, align 8
  %13 = load ptr, ptr %4, align 8
  %14 = getelementptr inbounds %struct._IStateCoder, ptr %13, i32 0, i32 0
  store ptr %12, ptr %14, align 8
  %15 = load ptr, ptr %6, align 8
  %16 = icmp eq ptr %15, null
  br i1 %16, label %17, label %18

17:                                               ; preds = %2
  store i32 2, ptr %3, align 4
  br label %33

18:                                               ; preds = %2
  %19 = load ptr, ptr %4, align 8
  %20 = getelementptr inbounds %struct._IStateCoder, ptr %19, i32 0, i32 1
  store ptr @Lzma2State_Free, ptr %20, align 8
  %21 = load ptr, ptr %4, align 8
  %22 = getelementptr inbounds %struct._IStateCoder, ptr %21, i32 0, i32 2
  store ptr @Lzma2State_SetProps, ptr %22, align 8
  %23 = load ptr, ptr %4, align 8
  %24 = getelementptr inbounds %struct._IStateCoder, ptr %23, i32 0, i32 3
  store ptr @Lzma2State_Init, ptr %24, align 8
  %25 = load ptr, ptr %4, align 8
  %26 = getelementptr inbounds %struct._IStateCoder, ptr %25, i32 0, i32 4
  store ptr @Lzma2State_Code, ptr %26, align 8
  %27 = load ptr, ptr %6, align 8
  %28 = getelementptr inbounds %struct.CLzma2Dec, ptr %27, i32 0, i32 0
  %29 = getelementptr inbounds %struct.CLzmaDec, ptr %28, i32 0, i32 2
  store ptr null, ptr %29, align 8
  %30 = load ptr, ptr %6, align 8
  %31 = getelementptr inbounds %struct.CLzma2Dec, ptr %30, i32 0, i32 0
  %32 = getelementptr inbounds %struct.CLzmaDec, ptr %31, i32 0, i32 1
  store ptr null, ptr %32, align 8
  store i32 0, ptr %3, align 4
  br label %33

33:                                               ; preds = %18, %17
  %34 = load i32, ptr %3, align 4
  ret i32 %34
}

; Function Attrs: nounwind uwtable
define i32 @MixCoder_SetFromMethod(ptr noundef %0, i32 noundef %1, i64 noundef %2) #0 {
  %4 = alloca i32, align 4
  %5 = alloca ptr, align 8
  %6 = alloca i32, align 4
  %7 = alloca i64, align 8
  %8 = alloca ptr, align 8
  store ptr %0, ptr %5, align 8
  store i32 %1, ptr %6, align 4
  store i64 %2, ptr %7, align 8
  %9 = load ptr, ptr %5, align 8
  %10 = getelementptr inbounds %struct.CMixCoder, ptr %9, i32 0, i32 7
  %11 = load i32, ptr %6, align 4
  %12 = sext i32 %11 to i64
  %13 = getelementptr inbounds [4 x %struct._IStateCoder], ptr %10, i64 0, i64 %12
  store ptr %13, ptr %8, align 8
  %14 = load i64, ptr %7, align 8
  %15 = load ptr, ptr %5, align 8
  %16 = getelementptr inbounds %struct.CMixCoder, ptr %15, i32 0, i32 6
  %17 = load i32, ptr %6, align 4
  %18 = sext i32 %17 to i64
  %19 = getelementptr inbounds [4 x i64], ptr %16, i64 0, i64 %18
  store i64 %14, ptr %19, align 8
  %20 = load i64, ptr %7, align 8
  switch i64 %20, label %27 [
    i64 33, label %21
  ]

21:                                               ; preds = %3
  %22 = load ptr, ptr %8, align 8
  %23 = load ptr, ptr %5, align 8
  %24 = getelementptr inbounds %struct.CMixCoder, ptr %23, i32 0, i32 0
  %25 = load ptr, ptr %24, align 8
  %26 = call i32 @Lzma2State_SetFromMethod(ptr noundef %22, ptr noundef %25)
  store i32 %26, ptr %4, align 4
  br label %38

27:                                               ; preds = %3
  %28 = load i32, ptr %6, align 4
  %29 = icmp eq i32 %28, 0
  br i1 %29, label %30, label %31

30:                                               ; preds = %27
  store i32 4, ptr %4, align 4
  br label %38

31:                                               ; preds = %27
  %32 = load ptr, ptr %8, align 8
  %33 = load i64, ptr %7, align 8
  %34 = load ptr, ptr %5, align 8
  %35 = getelementptr inbounds %struct.CMixCoder, ptr %34, i32 0, i32 0
  %36 = load ptr, ptr %35, align 8
  %37 = call i32 @BraState_SetFromMethod(ptr noundef %32, i64 noundef %33, ptr noundef %36)
  store i32 %37, ptr %4, align 4
  br label %38

38:                                               ; preds = %31, %30, %21
  %39 = load i32, ptr %4, align 4
  ret i32 %39
}