; Function Attrs: nounwind uwtable
define range(i32 0, 5) i32 @MixCoder_SetFromMethod(ptr noundef captures(none) %0, i32 noundef %1, i64 noundef %2) local_unnamed_addr #1 {
  %4 = getelementptr inbounds nuw i8, ptr %0, i64 112
  %5 = sext i32 %1 to i64
  %6 = getelementptr inbounds [4 x %struct._IStateCoder], ptr %4, i64 0, i64 %5
  %7 = getelementptr inbounds nuw i8, ptr %0, i64 80
  %8 = getelementptr inbounds [4 x i64], ptr %7, i64 0, i64 %5
  store i64 %2, ptr %8, align 8
  %cond = icmp eq i64 %2, 33
  br i1 %cond, label %9, label %20

9:                                                ; preds = %3
  %10 = load ptr, ptr %0, align 8
  %11 = load ptr, ptr %10, align 8
  %12 = tail call ptr %11(ptr noundef nonnull %10, i64 noundef 168) #10
  store ptr %12, ptr %6, align 8
  %13 = icmp eq ptr %12, null
  br i1 %13, label %Lzma2State_SetFromMethod.exit, label %14

14:                                               ; preds = %9
  %15 = getelementptr inbounds nuw i8, ptr %6, i64 8
  store ptr @Lzma2State_Free, ptr %15, align 8
  %16 = getelementptr inbounds nuw i8, ptr %6, i64 16
  store ptr @Lzma2State_SetProps, ptr %16, align 8
  %17 = getelementptr inbounds nuw i8, ptr %6, i64 24
  store ptr @Lzma2State_Init, ptr %17, align 8
  %18 = getelementptr inbounds nuw i8, ptr %6, i64 32
  store ptr @Lzma2State_Code, ptr %18, align 8
  %19 = getelementptr inbounds nuw i8, ptr %12, i64 16
  tail call void @llvm.memset.p0.i64(ptr noundef nonnull align 8 dereferenceable(16) %19, i8 0, i64 16, i1 false)
  br label %Lzma2State_SetFromMethod.exit

20:                                               ; preds = %3
  %21 = icmp eq i32 %1, 0
  %22 = add i64 %2, -10
  %or.cond11.i = icmp ult i64 %22, -7
  %or.cond = or i1 %21, %or.cond11.i
  br i1 %or.cond, label %Lzma2State_SetFromMethod.exit, label %23

23:                                               ; preds = %20
  %24 = load ptr, ptr %0, align 8
  store ptr null, ptr %6, align 8
  %25 = load ptr, ptr %24, align 8
  %26 = tail call ptr %25(ptr noundef nonnull %24, i64 noundef 16688) #10
  %27 = icmp eq ptr %26, null
  br i1 %27, label %Lzma2State_SetFromMethod.exit, label %28

28:                                               ; preds = %23
  %29 = trunc nuw i64 %2 to i32
  %30 = getelementptr inbounds nuw i8, ptr %26, i64 24
  store i32 %29, ptr %30, align 8
  store ptr %26, ptr %6, align 8
  %31 = getelementptr inbounds nuw i8, ptr %6, i64 8
  store ptr @BraState_Free, ptr %31, align 8
  %32 = getelementptr inbounds nuw i8, ptr %6, i64 16
  store ptr @BraState_SetProps, ptr %32, align 8
  %33 = getelementptr inbounds nuw i8, ptr %6, i64 24
  store ptr @BraState_Init, ptr %33, align 8
  %34 = getelementptr inbounds nuw i8, ptr %6, i64 32
  store ptr @BraState_Code, ptr %34, align 8
  br label %Lzma2State_SetFromMethod.exit

Lzma2State_SetFromMethod.exit:                    ; preds = %28, %23, %14, %9, %20
  %.0 = phi i32 [ 4, %20 ], [ 0, %14 ], [ 2, %9 ], [ 0, %28 ], [ 2, %23 ]
  ret i32 %.0
}